#include <math.h>
#include <stdio.h>
#include <stdlib.h>
#include <string.h>

void main()
{
	int rearrange(char s1[],char s2[]);
	char s1[300],s2[300];
	int k;
	scanf("%s%s",s1,s2);
	k=rearrange(s1,s2);
	if(k)printf("YES\n");
	else printf("NO\n");
}
int rearrange(char s1[],char s2[])
{
	int count1[128]={0},count2[128]={0};
	int len1,temp;
	len1=strlen(s1);
	temp=strlen(s2);
	if(len1!=temp)return 0;
	for(temp=0;temp<len1;temp++)
	{
		count1[s1[temp]]++;
		count2[s2[temp]]++;
	}
	for(temp=0;temp<128;temp++)
	{
		if(count1[temp]!=count2[temp])return 0;
		
	}
	return 1;
}
